target datalayout = "e-m:e-p270:32:32-p271:32:32-p272:64:64-i64:64-i128:128-f80:128-n8:16:32:64-S128"
target triple = "x86_64-pc-linux-gnu"

%struct.ARG_list = type { ptr, i8, [0 x i8] }

; Function Attrs: mustprogress nounwind uwtable
define noundef ptr @_Z10pj_mkparamPKc(ptr noundef %0) #0 {
  %2 = alloca ptr, align 8
  %3 = alloca ptr, align 8
  store ptr %0, ptr %2, align 8, !tbaa !3
  call void @llvm.lifetime.start.p0(i64 8, ptr %3) #13
  %4 = load ptr, ptr %2, align 8, !tbaa !3
  %5 = call i64 @strlen(ptr noundef %4) #14
  %6 = add i64 16, %5
  %7 = call noalias ptr @malloc(i64 noundef %6) #15
  store ptr %7, ptr %3, align 8, !tbaa !8
  %8 = icmp ne ptr %7, null
  br i1 %8, label %9, label %27

9:                                                ; preds = %1
  %10 = load ptr, ptr %3, align 8, !tbaa !8
  %11 = getelementptr inbounds nuw %struct.ARG_list, ptr %10, i32 0, i32 1
  store i8 0, ptr %11, align 8, !tbaa !10
  %12 = load ptr, ptr %3, align 8, !tbaa !8
  %13 = getelementptr inbounds nuw %struct.ARG_list, ptr %12, i32 0, i32 0
  store ptr null, ptr %13, align 8, !tbaa !8
  %14 = load ptr, ptr %2, align 8, !tbaa !3
  %15 = load i8, ptr %14, align 1, !tbaa !10
  %16 = sext i8 %15 to i32
  %17 = icmp eq i32 %16, 43
  br i1 %17, label %18, label %21

18:                                               ; preds = %9
  %19 = load ptr, ptr %2, align 8, !tbaa !3
  %20 = getelementptr inbounds nuw i8, ptr %19, i32 1
  store ptr %20, ptr %2, align 8, !tbaa !3
  br label %21

21:                                               ; preds = %18, %9
  %22 = load ptr, ptr %3, align 8, !tbaa !8
  %23 = getelementptr inbounds nuw %struct.ARG_list, ptr %22, i32 0, i32 2
  %24 = getelementptr inbounds [0 x i8], ptr %23, i64 0, i64 0
  %25 = load ptr, ptr %2, align 8, !tbaa !3
  %26 = call ptr @strcpy(ptr noundef %24, ptr noundef %25) #13
  br label %27

27:                                               ; preds = %21, %1
  %28 = load ptr, ptr %3, align 8, !tbaa !8
  call void @llvm.lifetime.end.p0(i64 8, ptr %3) #13
  ret ptr %28
}