; Function Attrs: mustprogress nofree nounwind willreturn uwtable
define noundef ptr @_Z10pj_mkparamPKc(ptr noundef readonly captures(none) %0) local_unnamed_addr #0 {
  %2 = tail call i64 @strlen(ptr noundef nonnull dereferenceable(1) %0) #15
  %3 = add i64 %2, 16
  %4 = tail call noalias ptr @malloc(i64 noundef %3) #16
  %.not = icmp eq ptr %4, null
  br i1 %.not, label %11, label %5

5:                                                ; preds = %1
  %6 = getelementptr inbounds nuw i8, ptr %4, i64 8
  store i8 0, ptr %6, align 8, !tbaa !3
  store ptr null, ptr %4, align 8, !tbaa !6
  %7 = load i8, ptr %0, align 1, !tbaa !3
  %8 = icmp eq i8 %7, 43
  %spec.select.idx = zext i1 %8 to i64
  %spec.select = getelementptr inbounds nuw i8, ptr %0, i64 %spec.select.idx
  %9 = getelementptr inbounds nuw i8, ptr %4, i64 9
  %10 = tail call ptr @strcpy(ptr noundef nonnull dereferenceable(1) %9, ptr noundef nonnull dereferenceable(1) %spec.select) #17
  br label %11

11:                                               ; preds = %5, %1
  ret ptr %4
}